target datalayout = "e-m:e-p270:32:32-p271:32:32-p272:64:64-i64:64-i128:128-f80:128-n8:16:32:64-S128"
target triple = "x86_64-pc-linux-gnu"

%class.Sample_SoloMesh = type <{ %class.Sample, i8, [3 x i8], float, ptr, ptr, ptr, ptr, ptr, %struct.rcConfig, [4 x i8], ptr, i32, [4 x i8] }>
%class.Sample = type { ptr, ptr, ptr, ptr, ptr, i8, float, float, float, float, float, float, float, float, float, float, float, float, float, i32, i8, i8, i8, ptr, [9 x ptr], ptr, %class.SampleDebugDraw }
%class.SampleDebugDraw = type { %class.DebugDrawGL }
%class.DebugDrawGL = type { %struct.duDebugDraw }
%struct.duDebugDraw = type { ptr }
%struct.rcConfig = type { i32, i32, i32, i32, float, float, [3 x float], [3 x float], float, i32, i32, i32, i32, float, i32, i32, i32, float, float }

; Function Attrs: mustprogress uwtable
define dso_local void @_ZN15Sample_SoloMeshC2Ev(ptr noundef nonnull align 8 dereferenceable(356) %0) unnamed_addr #0 align 2 personality ptr @__gxx_personality_v0 {
  %2 = alloca ptr, align 8
  %3 = alloca ptr, align 8
  %4 = alloca i32, align 4
  store ptr %0, ptr %2, align 8
  %5 = load ptr, ptr %2, align 8
  call void @_ZN6SampleC2Ev(ptr noundef nonnull align 8 dereferenceable(200) %5)
  store ptr getelementptr inbounds ({ [23 x ptr] }, ptr @_ZTV15Sample_SoloMesh, i32 0, i32 0, i32 2), ptr %5, align 8
  %6 = getelementptr inbounds %class.Sample_SoloMesh, ptr %5, i32 0, i32 1
  store i8 1, ptr %6, align 8
  %7 = getelementptr inbounds %class.Sample_SoloMesh, ptr %5, i32 0, i32 3
  store float 0.000000e+00, ptr %7, align 4
  %8 = getelementptr inbounds %class.Sample_SoloMesh, ptr %5, i32 0, i32 4
  store ptr null, ptr %8, align 8
  %9 = getelementptr inbounds %class.Sample_SoloMesh, ptr %5, i32 0, i32 5
  store ptr null, ptr %9, align 8
  %10 = getelementptr inbounds %class.Sample_SoloMesh, ptr %5, i32 0, i32 6
  store ptr null, ptr %10, align 8
  %11 = getelementptr inbounds %class.Sample_SoloMesh, ptr %5, i32 0, i32 7
  store ptr null, ptr %11, align 8
  %12 = getelementptr inbounds %class.Sample_SoloMesh, ptr %5, i32 0, i32 8
  store ptr null, ptr %12, align 8
  %13 = getelementptr inbounds %class.Sample_SoloMesh, ptr %5, i32 0, i32 11
  store ptr null, ptr %13, align 8
  %14 = getelementptr inbounds %class.Sample_SoloMesh, ptr %5, i32 0, i32 12
  store i32 0, ptr %14, align 8
  %15 = invoke noalias noundef nonnull ptr @_Znwm(i64 noundef 33408) #9
          to label %16 unwind label %19

16:                                               ; preds = %1
  invoke void @_ZN17NavMeshTesterToolC1Ev(ptr noundef nonnull align 8 dereferenceable(33408) %15)
          to label %17 unwind label %23

17:                                               ; preds = %16
  invoke void @_ZN6Sample7setToolEP10SampleTool(ptr noundef nonnull align 8 dereferenceable(200) %5, ptr noundef %15)
          to label %18 unwind label %19

18:                                               ; preds = %17
  ret void

19:                                               ; preds = %17, %1
  %20 = landingpad { ptr, i32 }
          cleanup
  %21 = extractvalue { ptr, i32 } %20, 0
  store ptr %21, ptr %3, align 8
  %22 = extractvalue { ptr, i32 } %20, 1
  store i32 %22, ptr %4, align 4
  br label %27

23:                                               ; preds = %16
  %24 = landingpad { ptr, i32 }
          cleanup
  %25 = extractvalue { ptr, i32 } %24, 0
  store ptr %25, ptr %3, align 8
  %26 = extractvalue { ptr, i32 } %24, 1
  store i32 %26, ptr %4, align 4
  call void @_ZdlPv(ptr noundef %15) #10
  br label %27

27:                                               ; preds = %23, %19
  call void @_ZN6SampleD2Ev(ptr noundef nonnull align 8 dereferenceable(200) %5) #11
  br label %28

28:                                               ; preds = %27
  %29 = load ptr, ptr %3, align 8
  %30 = load i32, ptr %4, align 4
  %31 = insertvalue { ptr, i32 } poison, ptr %29, 0
  %32 = insertvalue { ptr, i32 } %31, i32 %30, 1
  resume { ptr, i32 } %32
}