; Function Attrs: mustprogress uwtable
define dso_local void @_ZN15Sample_SoloMeshC2Ev(ptr noundef nonnull align 8 dereferenceable(356) %0) unnamed_addr #0 align 2 personality ptr @__gxx_personality_v0 {
  tail call void @_ZN6SampleC2Ev(ptr noundef nonnull align 8 dereferenceable(200) %0)
  store ptr getelementptr inbounds ({ [23 x ptr] }, ptr @_ZTV15Sample_SoloMesh, i64 0, i32 0, i64 2), ptr %0, align 8
  %2 = getelementptr inbounds i8, ptr %0, i64 200
  store i8 1, ptr %2, align 8
  %3 = getelementptr inbounds i8, ptr %0, i64 204
  %4 = getelementptr inbounds i8, ptr %0, i64 344
  store ptr null, ptr %4, align 8
  %5 = getelementptr inbounds i8, ptr %0, i64 352
  store i32 0, ptr %5, align 8
  tail call void @llvm.memset.p0.i64(ptr noundef nonnull align 4 dereferenceable(44) %3, i8 0, i64 44, i1 false)
  %6 = invoke noalias noundef nonnull dereferenceable(33408) ptr @_Znwm(i64 noundef 33408) #10
          to label %7 unwind label %10

7:                                                ; preds = %1
  invoke void @_ZN17NavMeshTesterToolC1Ev(ptr noundef nonnull align 8 dereferenceable(33408) %6)
          to label %8 unwind label %12

8:                                                ; preds = %7
  invoke void @_ZN6Sample7setToolEP10SampleTool(ptr noundef nonnull align 8 dereferenceable(200) %0, ptr noundef nonnull %6)
          to label %9 unwind label %10

9:                                                ; preds = %8
  ret void

10:                                               ; preds = %8, %1
  %11 = landingpad { ptr, i32 }
          cleanup
  br label %14

12:                                               ; preds = %7
  %13 = landingpad { ptr, i32 }
          cleanup
  tail call void @_ZdlPv(ptr noundef nonnull %6) #11
  br label %14

14:                                               ; preds = %12, %10
  %.pn = phi { ptr, i32 } [ %11, %10 ], [ %13, %12 ]
  tail call void @_ZN6SampleD2Ev(ptr noundef nonnull align 8 dereferenceable(200) %0) #12
  resume { ptr, i32 } %.pn
}